target datalayout = "e-m:e-p270:32:32-p271:32:32-p272:64:64-i64:64-i128:128-f80:128-n8:16:32:64-S128"
target triple = "x86_64-pc-linux-gnu"

%struct.expert_field = type { i32, i32 }

@hf_ldp_tlv_sess_atm_merge = internal global i32 0, align 4
@hf_ldp_tlv_sess_atm_lr = internal global i32 0, align 4
@hf_ldp_tlv_sess_atm_dir = internal global i32 0, align 4
@hf_ldp_tlv_sess_atm_minvpi = internal global i32 0, align 4
@hf_ldp_tlv_sess_atm_minvci = internal global i32 0, align 4
@hf_ldp_tlv_sess_atm_maxvpi = internal global i32 0, align 4
@hf_ldp_tlv_sess_atm_maxvci = internal global i32 0, align 4
@ett_ldp_tlv_val = internal global i32 0, align 4
@ei_ldp_tlv_fec_len = internal global %struct.expert_field zeroinitializer, align 4
@.str.1051 = private unnamed_addr constant [66 x i8] c"Error processing ATM Parameters TLV: length is %d, should be >= 4\00", align 1
@.str.1052 = private unnamed_addr constant [15 x i8] c"ATM Parameters\00", align 1
@.str.1053 = private unnamed_addr constant [37 x i8] c"Number of Label Range components: %u\00", align 1
@.str.1054 = private unnamed_addr constant [27 x i8] c"ATM Label Range Components\00", align 1
@.str.1055 = private unnamed_addr constant [29 x i8] c"ATM Label Range Component %u\00", align 1
@.str.1056 = private unnamed_addr constant [47 x i8] c"Error processing TLV: Extra data at end of TLV\00", align 1

; Function Attrs: null_pointer_is_valid sspstrong uwtable
define internal void @dissect_tlv_atm_session_parms(ptr noundef %0, ptr noundef %1, i32 noundef %2, ptr noundef %3, i32 noundef %4) #0 {
  %6 = alloca ptr, align 8
  %7 = alloca ptr, align 8
  %8 = alloca i32, align 4
  %9 = alloca ptr, align 8
  %10 = alloca i32, align 4
  %11 = alloca ptr, align 8
  %12 = alloca ptr, align 8
  %13 = alloca i8, align 1
  %14 = alloca i8, align 1
  %15 = alloca i32, align 4
  store ptr %0, ptr %6, align 8
  store ptr %1, ptr %7, align 8
  store i32 %2, ptr %8, align 4
  store ptr %3, ptr %9, align 8
  store i32 %4, ptr %10, align 4
  call void @llvm.lifetime.start.p0(i64 8, ptr %11) #7
  call void @llvm.lifetime.start.p0(i64 8, ptr %12) #7
  call void @llvm.lifetime.start.p0(i64 1, ptr %13) #7
  call void @llvm.lifetime.start.p0(i64 1, ptr %14) #7
  %16 = load i32, ptr %10, align 4
  %17 = icmp slt i32 %16, 4
  br i1 %17, label %18, label %26

18:                                               ; preds = %5
  %19 = load ptr, ptr %9, align 8
  %20 = load ptr, ptr %7, align 8
  %21 = load ptr, ptr %6, align 8
  %22 = load i32, ptr %8, align 4
  %23 = load i32, ptr %10, align 4
  %24 = load i32, ptr %10, align 4
  %25 = call ptr (ptr, ptr, ptr, ptr, i32, i32, ptr, ...) @proto_tree_add_expert_format(ptr noundef %19, ptr noundef %20, ptr noundef @ei_ldp_tlv_fec_len, ptr noundef %21, i32 noundef %22, i32 noundef %23, ptr noundef @.str.1051, i32 noundef %24)
  store i32 1, ptr %15, align 4
  br label %133

26:                                               ; preds = %5
  %27 = load ptr, ptr %9, align 8
  %28 = load ptr, ptr %6, align 8
  %29 = load i32, ptr %8, align 4
  %30 = load i32, ptr %10, align 4
  %31 = load i32, ptr @ett_ldp_tlv_val, align 4
  %32 = call ptr @proto_tree_add_subtree(ptr noundef %27, ptr noundef %28, i32 noundef %29, i32 noundef %30, i32 noundef %31, ptr noundef null, ptr noundef @.str.1052)
  store ptr %32, ptr %11, align 8
  %33 = load ptr, ptr %11, align 8
  %34 = load i32, ptr @hf_ldp_tlv_sess_atm_merge, align 4
  %35 = load ptr, ptr %6, align 8
  %36 = load i32, ptr %8, align 4
  %37 = call ptr @proto_tree_add_item(ptr noundef %33, i32 noundef %34, ptr noundef %35, i32 noundef %36, i32 noundef 1, i32 noundef 0)
  %38 = load ptr, ptr %6, align 8
  %39 = load i32, ptr %8, align 4
  %40 = call zeroext i8 @tvb_get_uint8(ptr noundef %38, i32 noundef %39)
  %41 = zext i8 %40 to i32
  %42 = ashr i32 %41, 2
  %43 = and i32 %42, 15
  %44 = trunc i32 %43 to i8
  store i8 %44, ptr %13, align 1
  %45 = load ptr, ptr %11, align 8
  %46 = load i32, ptr @hf_ldp_tlv_sess_atm_lr, align 4
  %47 = load ptr, ptr %6, align 8
  %48 = load i32, ptr %8, align 4
  %49 = load i8, ptr %13, align 1
  %50 = zext i8 %49 to i32
  %51 = load i8, ptr %13, align 1
  %52 = zext i8 %51 to i32
  %53 = call ptr (ptr, i32, ptr, i32, i32, i32, ptr, ...) @proto_tree_add_uint_format(ptr noundef %45, i32 noundef %46, ptr noundef %47, i32 noundef %48, i32 noundef 1, i32 noundef %50, ptr noundef @.str.1053, i32 noundef %52)
  %54 = load ptr, ptr %11, align 8
  %55 = load i32, ptr @hf_ldp_tlv_sess_atm_dir, align 4
  %56 = load ptr, ptr %6, align 8
  %57 = load i32, ptr %8, align 4
  %58 = call ptr @proto_tree_add_item(ptr noundef %54, i32 noundef %55, ptr noundef %56, i32 noundef %57, i32 noundef 1, i32 noundef 0)
  %59 = load i32, ptr %8, align 4
  %60 = add i32 %59, 4
  store i32 %60, ptr %8, align 4
  %61 = load i32, ptr %10, align 4
  %62 = sub i32 %61, 4
  store i32 %62, ptr %10, align 4
  %63 = load ptr, ptr %11, align 8
  %64 = load ptr, ptr %6, align 8
  %65 = load i32, ptr %8, align 4
  %66 = load i32, ptr %10, align 4
  %67 = load i32, ptr @ett_ldp_tlv_val, align 4
  %68 = call ptr @proto_tree_add_subtree(ptr noundef %63, ptr noundef %64, i32 noundef %65, i32 noundef %66, i32 noundef %67, ptr noundef null, ptr noundef @.str.1054)
  store ptr %68, ptr %11, align 8
  store i8 1, ptr %14, align 1
  br label %69

69:                                               ; preds = %111, %26
  %70 = load i8, ptr %13, align 1
  %71 = zext i8 %70 to i32
  %72 = icmp sgt i32 %71, 0
  br i1 %72, label %73, label %76

73:                                               ; preds = %69
  %74 = load i32, ptr %10, align 4
  %75 = icmp sge i32 %74, 8
  br label %76

76:                                               ; preds = %73, %69
  %77 = phi i1 [ false, %69 ], [ %75, %73 ]
  br i1 %77, label %78, label %118

78:                                               ; preds = %76
  %79 = load ptr, ptr %11, align 8
  %80 = load ptr, ptr %6, align 8
  %81 = load i32, ptr %8, align 4
  %82 = load i32, ptr @ett_ldp_tlv_val, align 4
  %83 = load i8, ptr %14, align 1
  %84 = zext i8 %83 to i32
  %85 = call ptr (ptr, ptr, i32, i32, i32, ptr, ptr, ...) @proto_tree_add_subtree_format(ptr noundef %79, ptr noundef %80, i32 noundef %81, i32 noundef 8, i32 noundef %82, ptr noundef null, ptr noundef @.str.1055, i32 noundef %84)
  store ptr %85, ptr %12, align 8
  %86 = load ptr, ptr %12, align 8
  %87 = load i32, ptr @hf_ldp_tlv_sess_atm_minvpi, align 4
  %88 = load ptr, ptr %6, align 8
  %89 = load i32, ptr %8, align 4
  %90 = call ptr @proto_tree_add_item(ptr noundef %86, i32 noundef %87, ptr noundef %88, i32 noundef %89, i32 noundef 2, i32 noundef 0)
  %91 = load ptr, ptr %12, align 8
  %92 = load i32, ptr @hf_ldp_tlv_sess_atm_maxvpi, align 4
  %93 = load ptr, ptr %6, align 8
  %94 = load i32, ptr %8, align 4
  %95 = add i32 %94, 4
  %96 = call ptr @proto_tree_add_item(ptr noundef %91, i32 noundef %92, ptr noundef %93, i32 noundef %95, i32 noundef 2, i32 noundef 0)
  %97 = load ptr, ptr %12, align 8
  %98 = load i32, ptr @hf_ldp_tlv_sess_atm_minvci, align 4
  %99 = load ptr, ptr %6, align 8
  %100 = load i32, ptr %8, align 4
  %101 = add i32 %100, 2
  %102 = call ptr @proto_tree_add_item(ptr noundef %97, i32 noundef %98, ptr noundef %99, i32 noundef %101, i32 noundef 2, i32 noundef 0)
  %103 = load ptr, ptr %12, align 8
  %104 = load i32, ptr @hf_ldp_tlv_sess_atm_maxvci, align 4
  %105 = load ptr, ptr %6, align 8
  %106 = load i32, ptr %8, align 4
  %107 = add i32 %106, 6
  %108 = call ptr @proto_tree_add_item(ptr noundef %103, i32 noundef %104, ptr noundef %105, i32 noundef %107, i32 noundef 2, i32 noundef 0)
  %109 = load i32, ptr %8, align 4
  %110 = add i32 %109, 8
  store i32 %110, ptr %8, align 4
  br label %111

111:                                              ; preds = %78
  %112 = load i8, ptr %14, align 1
  %113 = add i8 %112, 1
  store i8 %113, ptr %14, align 1
  %114 = load i32, ptr %10, align 4
  %115 = sub i32 %114, 8
  store i32 %115, ptr %10, align 4
  %116 = load i8, ptr %13, align 1
  %117 = add i8 %116, -1
  store i8 %117, ptr %13, align 1
  br label %69, !llvm.loop !21

118:                                              ; preds = %76
  %119 = load i32, ptr %10, align 4
  %120 = icmp ne i32 %119, 0
  br i1 %120, label %125, label %121

121:                                              ; preds = %118
  %122 = load i8, ptr %13, align 1
  %123 = zext i8 %122 to i32
  %124 = icmp ne i32 %123, 0
  br i1 %124, label %125, label %132

125:                                              ; preds = %121, %118
  %126 = load ptr, ptr %11, align 8
  %127 = load ptr, ptr %7, align 8
  %128 = load ptr, ptr %6, align 8
  %129 = load i32, ptr %8, align 4
  %130 = load i32, ptr %10, align 4
  %131 = call ptr (ptr, ptr, ptr, ptr, i32, i32, ptr, ...) @proto_tree_add_expert_format(ptr noundef %126, ptr noundef %127, ptr noundef @ei_ldp_tlv_fec_len, ptr noundef %128, i32 noundef %129, i32 noundef %130, ptr noundef @.str.1056)
  br label %132

132:                                              ; preds = %125, %121
  store i32 0, ptr %15, align 4
  br label %133

133:                                              ; preds = %132, %18
  call void @llvm.lifetime.end.p0(i64 1, ptr %14) #7
  call void @llvm.lifetime.end.p0(i64 1, ptr %13) #7
  call void @llvm.lifetime.end.p0(i64 8, ptr %12) #7
  call void @llvm.lifetime.end.p0(i64 8, ptr %11) #7
  %134 = load i32, ptr %15, align 4
  switch i32 %134, label %136 [
    i32 0, label %135
    i32 1, label %135
  ]

135:                                              ; preds = %133, %133
  ret void

136:                                              ; preds = %133
  unreachable
}