; Function Attrs: null_pointer_is_valid sspstrong uwtable
define internal fastcc void @dissect_tlv_atm_session_parms(ptr noundef %0, ptr noundef %1, i32 noundef %2, ptr noundef %3, i32 noundef range(i32 0, 2147483644) %4) unnamed_addr #0 {
  %6 = icmp samesign ult i32 %4, 4
  br i1 %6, label %7, label %9

7:                                                ; preds = %5
  %8 = tail call ptr (ptr, ptr, ptr, ptr, i32, i32, ptr, ...) @proto_tree_add_expert_format(ptr noundef %3, ptr noundef %1, ptr noundef nonnull @ei_ldp_tlv_fec_len, ptr noundef %0, i32 noundef %2, i32 noundef %4, ptr noundef nonnull @.str.1051, i32 noundef %4)
  br label %51

9:                                                ; preds = %5
  %10 = load i32, ptr @ett_ldp_tlv_val, align 4
  %11 = tail call ptr @proto_tree_add_subtree(ptr noundef %3, ptr noundef %0, i32 noundef %2, i32 noundef %4, i32 noundef %10, ptr noundef null, ptr noundef nonnull @.str.1052)
  %12 = load i32, ptr @hf_ldp_tlv_sess_atm_merge, align 4
  %13 = tail call ptr @proto_tree_add_item(ptr noundef %11, i32 noundef %12, ptr noundef %0, i32 noundef %2, i32 noundef 1, i32 noundef 0)
  %14 = tail call zeroext i8 @tvb_get_uint8(ptr noundef %0, i32 noundef %2)
  %15 = lshr i8 %14, 2
  %16 = and i8 %15, 15
  %17 = load i32, ptr @hf_ldp_tlv_sess_atm_lr, align 4
  %18 = zext nneg i8 %16 to i32
  %19 = tail call ptr (ptr, i32, ptr, i32, i32, i32, ptr, ...) @proto_tree_add_uint_format(ptr noundef %11, i32 noundef %17, ptr noundef %0, i32 noundef %2, i32 noundef 1, i32 noundef %18, ptr noundef nonnull @.str.1053, i32 noundef %18)
  %20 = load i32, ptr @hf_ldp_tlv_sess_atm_dir, align 4
  %21 = tail call ptr @proto_tree_add_item(ptr noundef %11, i32 noundef %20, ptr noundef %0, i32 noundef %2, i32 noundef 1, i32 noundef 0)
  %22 = add i32 %2, 4
  %23 = add nsw i32 %4, -4
  %24 = load i32, ptr @ett_ldp_tlv_val, align 4
  %25 = tail call ptr @proto_tree_add_subtree(ptr noundef %11, ptr noundef %0, i32 noundef %22, i32 noundef %23, i32 noundef %24, ptr noundef null, ptr noundef nonnull @.str.1054)
  %26 = icmp ne i8 %16, 0
  %27 = icmp samesign ugt i32 %23, 7
  %28 = select i1 %26, i1 %27, i1 false
  br i1 %28, label %.lr.ph, label %._crit_edge

.lr.ph:                                           ; preds = %9, %.lr.ph
  %indvars.iv = phi i32 [ %indvars.iv.next, %.lr.ph ], [ 1, %9 ]
  %.06066 = phi i8 [ %44, %.lr.ph ], [ %16, %9 ]
  %.06165 = phi i32 [ %42, %.lr.ph ], [ %22, %9 ]
  %.06264 = phi i32 [ %43, %.lr.ph ], [ %23, %9 ]
  %29 = load i32, ptr @ett_ldp_tlv_val, align 4
  %30 = tail call ptr (ptr, ptr, i32, i32, i32, ptr, ptr, ...) @proto_tree_add_subtree_format(ptr noundef %25, ptr noundef %0, i32 noundef %.06165, i32 noundef 8, i32 noundef %29, ptr noundef null, ptr noundef nonnull @.str.1055, i32 noundef %indvars.iv)
  %31 = load i32, ptr @hf_ldp_tlv_sess_atm_minvpi, align 4
  %32 = tail call ptr @proto_tree_add_item(ptr noundef %30, i32 noundef %31, ptr noundef %0, i32 noundef %.06165, i32 noundef 2, i32 noundef 0)
  %33 = load i32, ptr @hf_ldp_tlv_sess_atm_maxvpi, align 4
  %34 = add i32 %.06165, 4
  %35 = tail call ptr @proto_tree_add_item(ptr noundef %30, i32 noundef %33, ptr noundef %0, i32 noundef %34, i32 noundef 2, i32 noundef 0)
  %36 = load i32, ptr @hf_ldp_tlv_sess_atm_minvci, align 4
  %37 = add i32 %.06165, 2
  %38 = tail call ptr @proto_tree_add_item(ptr noundef %30, i32 noundef %36, ptr noundef %0, i32 noundef %37, i32 noundef 2, i32 noundef 0)
  %39 = load i32, ptr @hf_ldp_tlv_sess_atm_maxvci, align 4
  %40 = add i32 %.06165, 6
  %41 = tail call ptr @proto_tree_add_item(ptr noundef %30, i32 noundef %39, ptr noundef %0, i32 noundef %40, i32 noundef 2, i32 noundef 0)
  %42 = add i32 %.06165, 8
  %indvars.iv.next = add nuw nsw i32 %indvars.iv, 1
  %43 = add nsw i32 %.06264, -8
  %44 = add nsw i8 %.06066, -1
  %45 = icmp ne i8 %44, 0
  %46 = icmp samesign ugt i32 %43, 7
  %47 = select i1 %45, i1 %46, i1 false
  br i1 %47, label %.lr.ph, label %._crit_edge, !llvm.loop !20

._crit_edge:                                      ; preds = %.lr.ph, %9
  %.062.lcssa = phi i32 [ %23, %9 ], [ %43, %.lr.ph ]
  %.061.lcssa = phi i32 [ %22, %9 ], [ %42, %.lr.ph ]
  %.lcssa = phi i1 [ %26, %9 ], [ %45, %.lr.ph ]
  %48 = icmp ne i32 %.062.lcssa, 0
  %or.cond = or i1 %48, %.lcssa
  br i1 %or.cond, label %49, label %51

49:                                               ; preds = %._crit_edge
  %50 = tail call ptr (ptr, ptr, ptr, ptr, i32, i32, ptr, ...) @proto_tree_add_expert_format(ptr noundef %25, ptr noundef %1, ptr noundef nonnull @ei_ldp_tlv_fec_len, ptr noundef %0, i32 noundef %.061.lcssa, i32 noundef %.062.lcssa, ptr noundef nonnull @.str.1056)
  br label %51

51:                                               ; preds = %49, %._crit_edge, %7
  ret void
}